; Function Attrs: mustprogress nofree norecurse nosync nounwind willreturn memory(argmem: read) uwtable
define dso_local noundef i32 @_ZN4absl13cord_internal9CordzInfo15GetParentMethodEPKS1_(ptr noundef readonly %src) local_unnamed_addr #5 align 2 {
entry:
  %cmp = icmp eq ptr %src, null
  br i1 %cmp, label %return, label %if.end

if.end:                                           ; preds = %entry
  %parent_method_ = getelementptr inbounds i8, ptr %src, i64 1116
  %0 = load i32, ptr %parent_method_, align 4
  %cmp1.not = icmp eq i32 %0, 0
  br i1 %cmp1.not, label %cond.false, label %return

cond.false:                                       ; preds = %if.end
  %method_ = getelementptr inbounds i8, ptr %src, i64 1112
  %1 = load i32, ptr %method_, align 8
  br label %return

return:                                           ; preds = %cond.false, %if.end, %entry
  %retval.0 = phi i32 [ 0, %entry ], [ %1, %cond.false ], [ %0, %if.end ]
  ret i32 %retval.0
}